(lp0
(S'35810531'
p1
S'6361512'
p2
S'31137628'
p3
S'18622869'
p4
S'397489668'
p5
S'327577091'
p6
S'300868924'
p7
S'575160556'
p8
S'36499730'
p9
S'57268394'
p10
tp11
a(S'36361027'
p12
g1
g3
g4
g5
g6
S'22522178'
p13
S'372460791'
p14
S'407347022'
p15
g9
tp16
a(g2
g3
g4
S'241709263'
p17
g6
S'1305698738'
p18
g8
g15
g9
g10
tp19
a(S'104952689'
p20
g4
g17
g5
g6
S'7517052'
p21
g7
g8
g9
g10
tp22
a(g12
g20
g1
g2
g4
g21
g13
g8
g15
g10
tp23
a(g20
g1
g2
g3
g17
g6
g21
g13
g7
g8
tp24
a(g20
g2
g3
g4
g17
g18
g14
S'211106542'
p25
g8
g9
tp26
a(g12
g20
g1
g4
g17
g6
g13
g25
g8
g15
tp27
a(g20
g3
g5
g6
g18
g13
g14
g8
g15
g9
tp28
a(g20
g3
S'18378349'
p29
g21
g18
g13
g14
g7
g9
g10
tp30
a(g20
g1
g29
g6
g21
g13
g7
g15
g9
g10
tp31
a(g20
g1
g4
g5
g6
g21
g14
g7
g25
g10
tp32
a(g2
g5
g29
g6
g21
g14
g25
g8
g9
g10
tp33
a(g1
g2
g17
g5
g6
g14
g7
g8
g15
g9
tp34
a(g12
g20
g3
g5
g21
g18
g14
g8
g15
g10
tp35
a(g12
g1
g4
g17
g5
g21
g18
g8
g15
g9
tp36
a(g12
g2
g3
g5
g21
g18
g13
g15
g9
g10
tp37
a(g20
g1
g2
g4
g17
g29
g14
g7
g8
g9
tp38
a(g1
g3
g4
g17
g18
g13
g7
g25
g8
g10
tp39
a(g12
g20
g1
g2
g3
g17
g18
g8
g9
g10
tp40
a(g1
g3
g4
g17
g21
g13
g14
g25
g8
g15
tp41
a(g12
g1
g2
g3
g4
g5
g29
g14
g8
g10
tp42
a(g12
g1
g3
g4
g17
g21
g18
g13
g8
g10
tp43
a(g12
g1
g4
g17
g5
g21
g18
g13
g25
g10
tp44
a(g20
g1
g2
g4
g17
g5
g29
g21
g25
g15
tp45
a(g20
g1
g2
g6
g21
g18
g7
g15
g9
g10
tp46
a(g20
g1
g17
g5
g6
g21
g14
g7
g25
g15
tp47
a(g12
g1
g2
g5
g29
g21
g14
g25
g15
g9
tp48
a(g20
g1
g3
g4
g5
g6
g13
g14
g7
g10
tp49
a(g12
g20
g1
g3
g17
g29
g6
g13
g14
g9
tp50
a(g12
g3
g6
g13
g14
g7
g8
g15
g9
g10
tp51
a(g20
g2
g4
g17
g29
g6
g25
g8
g15
g9
tp52
a(g20
g2
g17
g5
g18
g13
g14
g8
g9
g10
tp53
a(g1
g29
g21
g18
g14
g7
g8
g15
g9
g10
tp54
a(g12
g2
g4
g5
g13
g14
g7
g15
g9
g10
tp55
a(g12
g20
g2
g17
g5
g29
g18
g8
g15
g9
tp56
a(g12
g20
g1
g3
g17
g6
g14
g8
g9
g10
tp57
a(g12
g1
g2
g3
g4
g18
g7
g25
g8
g9
tp58
a(g1
g2
g17
g5
g29
g6
g21
g18
g8
g10
tp59
a(g20
g1
g4
g17
g18
g13
g25
g8
g9
g10
tp60
a(g12
g3
g4
g17
g5
g21
g18
g7
g15
g9
tp61
a(g1
g4
g5
g6
g18
g13
g7
g25
g15
g9
tp62
a(g12
g20
g2
g3
g4
g5
g29
g13
g25
g15
tp63
a(g12
g1
g3
g6
g14
g7
g8
g15
g9
g10
tp64
a(g1
g3
g4
g5
g29
g21
g13
g7
g15
g9
tp65
a(g20
g3
g4
g5
g29
g21
g7
g25
g8
g15
tp66
a(g12
g2
g17
g29
g18
g14
g7
g25
g15
g10
tp67
a(g20
g3
g4
g29
g13
g7
g8
g15
g9
g10
tp68
a(g12
g1
g3
g17
g5
g6
g14
g7
g25
g10
tp69
a(g20
g1
g3
g5
g29
g6
g14
g25
g15
g9
tp70
a(g12
g1
g2
g3
g21
g7
g8
g15
g9
g10
tp71
a(g12
g20
g2
g3
g17
g5
g14
g7
g15
g9
tp72
a(g12
g1
g4
g21
g14
g7
g8
g15
g9
g10
tp73
a(g20
g1
g2
g4
g29
g21
g13
g14
g7
g8
tp74
a(g12
g1
g2
g3
g4
g5
g14
g15
g9
g10
tp75
a(g12
g1
g3
g4
g5
g6
g14
g7
g8
g9
tp76
a(g12
g1
g2
g4
g6
g13
g14
g25
g8
g10
tp77
a(g20
g1
g17
g5
g6
g21
g18
g7
g8
g10
tp78
a(g20
g2
g4
g17
g29
g21
g18
g25
g9
g10
tp79
a(g12
g1
g2
g4
g17
g5
g18
g13
g14
g15
tp80
a(g1
g4
g5
g29
g6
g18
g13
g7
g25
g10
tp81
a(g1
g3
g17
g5
g21
g13
g14
g8
g9
g10
tp82
a(g1
g2
g5
g21
g18
g7
g25
g8
g9
g10
tp83
a(g12
g20
g2
g4
g21
g18
g14
g8
g15
g9
tp84
a(g12
g20
g1
g3
g29
g18
g13
g14
g7
g8
tp85
a(g2
g3
g4
g17
g29
g14
g25
g8
g9
g10
tp86
a(g4
g17
g6
g21
g18
g14
g7
g8
g9
g10
tp87
a(g12
g20
g3
g4
g17
g5
g13
g7
g8
g9
tp88
a(g20
g1
g29
g6
g21
g13
g14
g7
g25
g10
tp89
a(g12
g2
g4
g17
g5
g29
g6
g8
g15
g9
tp90
a(g12
g20
g2
g3
g17
g5
g6
g21
g25
g9
tp91
a(g4
g17
g5
g21
g18
g13
g25
g8
g15
g9
tp92
a(g20
g4
g17
g29
g21
g13
g7
g8
g15
g9
tp93
a(g12
g20
g2
g3
g4
g17
g21
g18
g14
g7
tp94
a(g20
g1
g2
g18
g13
g7
g25
g8
g9
g10
tp95
a(g12
g1
g3
g5
g29
g21
g18
g13
g7
g9
tp96
a(g1
g3
g4
g5
g18
g13
g7
g15
g9
g10
tp97
a(g2
g3
g4
g17
g5
g29
g18
g13
g15
g9
tp98
a(g20
g1
g2
g17
g5
g29
g18
g14
g8
g15
tp99
a(g12
g4
g29
g6
g21
g7
g8
g15
g9
g10
tp100
a(g20
g1
g3
g21
g13
g14
g25
g8
g15
g9
tp101
a(g2
g3
g4
g17
g5
g29
g6
g14
g9
g10
tp102
a(g20
g2
g5
g21
g18
g13
g25
g8
g15
g9
tp103
a(g12
g3
g29
g21
g14
g7
g25
g15
g9
g10
tp104
a(g12
g1
g3
g17
g21
g18
g14
g25
g8
g10
tp105
a(g12
g20
g1
g3
g17
g5
g13
g8
g15
g9
tp106
a(g12
g4
g17
g5
g6
g18
g13
g14
g25
g9
tp107
a(g20
g1
g17
g5
g21
g18
g14
g7
g25
g9
tp108
a(g12
g20
g17
g29
g21
g18
g13
g15
g9
g10
tp109
a(g1
g3
g4
g17
g29
g6
g21
g14
g7
g10
tp110
a(g12
g2
g17
g5
g6
g13
g7
g15
g9
g10
tp111
a(g12
g20
g3
g4
g5
g21
g7
g25
g9
g10
tp112
a(g20
g4
g29
g14
g7
g25
g8
g15
g9
g10
tp113
a(g12
g17
g5
g29
g21
g18
g14
g25
g8
g15
tp114
a(g1
g3
g4
g29
g21
g18
g13
g7
g8
g15
tp115
a(g12
g20
g1
g2
g3
g6
g21
g18
g25
g8
tp116
a(g1
g2
g17
g5
g29
g18
g13
g14
g15
g10
tp117
a(g20
g1
g4
g17
g6
g18
g14
g7
g25
g8
tp118
a(g4
g29
g18
g13
g14
g7
g25
g8
g15
g10
tp119
a(g12
g20
g1
g17
g18
g13
g7
g25
g9
g10
tp120
a.